; Function Attrs: nounwind uwtable
define nonnull ptr @l_Lake_instDecidableEqDate___boxed(ptr noundef %0, ptr noundef %1) local_unnamed_addr #0 {
  %3 = getelementptr inbounds nuw i8, ptr %0, i64 8
  %4 = load ptr, ptr %3, align 8, !tbaa !13
  %5 = getelementptr inbounds nuw i8, ptr %0, i64 16
  %6 = load ptr, ptr %5, align 8, !tbaa !13
  %7 = getelementptr inbounds nuw i8, ptr %0, i64 24
  %8 = load ptr, ptr %7, align 8, !tbaa !13
  %9 = getelementptr inbounds nuw i8, ptr %1, i64 8
  %10 = load ptr, ptr %9, align 8, !tbaa !13
  %11 = getelementptr inbounds nuw i8, ptr %1, i64 16
  %12 = load ptr, ptr %11, align 8, !tbaa !13
  %13 = getelementptr inbounds nuw i8, ptr %1, i64 24
  %14 = load ptr, ptr %13, align 8, !tbaa !13
  %15 = ptrtoint ptr %4 to i64
  %16 = and i64 %15, 1
  %17 = icmp ne i64 %16, 0
  %18 = ptrtoint ptr %10 to i64
  %19 = and i64 %18, 1
  %20 = icmp ne i64 %19, 0
  %or.cond.i.i = select i1 %17, i1 %20, i1 false
  br i1 %or.cond.i.i, label %21, label %lean_nat_eq.exit.i.i, !prof !15

21:                                               ; preds = %2
  %22 = icmp eq ptr %4, %10
  br i1 %22, label %24, label %l_Lake_instDecidableEqDate.exit

lean_nat_eq.exit.i.i:                             ; preds = %2
  %23 = tail call zeroext i1 @lean_nat_big_eq(ptr noundef %4, ptr noundef %10) #3
  br i1 %23, label %24, label %l_Lake_instDecidableEqDate.exit

24:                                               ; preds = %lean_nat_eq.exit.i.i, %21
  %25 = ptrtoint ptr %6 to i64
  %26 = and i64 %25, 1
  %27 = icmp ne i64 %26, 0
  %28 = ptrtoint ptr %12 to i64
  %29 = and i64 %28, 1
  %30 = icmp ne i64 %29, 0
  %or.cond27.i.i = select i1 %27, i1 %30, i1 false
  br i1 %or.cond27.i.i, label %31, label %lean_nat_eq.exit19.i.i, !prof !15

31:                                               ; preds = %24
  %32 = icmp eq ptr %6, %12
  br i1 %32, label %34, label %l_Lake_instDecidableEqDate.exit

lean_nat_eq.exit19.i.i:                           ; preds = %24
  %33 = tail call zeroext i1 @lean_nat_big_eq(ptr noundef %6, ptr noundef %12) #3
  br i1 %33, label %34, label %l_Lake_instDecidableEqDate.exit

34:                                               ; preds = %lean_nat_eq.exit19.i.i, %31
  %35 = ptrtoint ptr %8 to i64
  %36 = and i64 %35, 1
  %37 = icmp ne i64 %36, 0
  %38 = ptrtoint ptr %14 to i64
  %39 = and i64 %38, 1
  %40 = icmp ne i64 %39, 0
  %or.cond30.i.i = select i1 %37, i1 %40, i1 false
  br i1 %or.cond30.i.i, label %41, label %.critedge.i20.i.i, !prof !15

41:                                               ; preds = %34
  %42 = icmp eq ptr %8, %14
  br label %lean_nat_eq.exit22.i.i

.critedge.i20.i.i:                                ; preds = %34
  %43 = tail call zeroext i1 @lean_nat_big_eq(ptr noundef %8, ptr noundef %14) #3
  br label %lean_nat_eq.exit22.i.i

lean_nat_eq.exit22.i.i:                           ; preds = %.critedge.i20.i.i, %41
  %.0.i21.i.i = phi i1 [ %42, %41 ], [ %43, %.critedge.i20.i.i ]
  %44 = select i1 %.0.i21.i.i, i64 3, i64 1
  br label %l_Lake_instDecidableEqDate.exit

l_Lake_instDecidableEqDate.exit:                  ; preds = %21, %lean_nat_eq.exit.i.i, %31, %lean_nat_eq.exit19.i.i, %lean_nat_eq.exit22.i.i
  %.0.i.i = phi i64 [ 1, %lean_nat_eq.exit.i.i ], [ %44, %lean_nat_eq.exit22.i.i ], [ 1, %lean_nat_eq.exit19.i.i ], [ 1, %21 ], [ 1, %31 ]
  %45 = ptrtoint ptr %1 to i64
  %46 = and i64 %45, 1
  %.not = icmp eq i64 %46, 0
  br i1 %.not, label %47, label %lean_dec.exit5

47:                                               ; preds = %l_Lake_instDecidableEqDate.exit
  %48 = load i32, ptr %1, align 4, !tbaa !5
  %49 = icmp sgt i32 %48, 1
  br i1 %49, label %50, label %52, !prof !10

50:                                               ; preds = %47
  %51 = add nsw i32 %48, -1
  store i32 %51, ptr %1, align 4, !tbaa !5
  br label %lean_dec.exit5

52:                                               ; preds = %47
  %.not.i = icmp eq i32 %48, 0
  br i1 %.not.i, label %lean_dec.exit5, label %53

53:                                               ; preds = %52
  tail call void @lean_dec_ref_cold(ptr noundef nonnull %1) #3
  br label %lean_dec.exit5

lean_dec.exit5:                                   ; preds = %53, %52, %50, %l_Lake_instDecidableEqDate.exit
  %54 = ptrtoint ptr %0 to i64
  %55 = and i64 %54, 1
  %.not8 = icmp eq i64 %55, 0
  br i1 %.not8, label %56, label %lean_dec.exit

56:                                               ; preds = %lean_dec.exit5
  %57 = load i32, ptr %0, align 4, !tbaa !5
  %58 = icmp sgt i32 %57, 1
  br i1 %58, label %59, label %61, !prof !10

59:                                               ; preds = %56
  %60 = add nsw i32 %57, -1
  store i32 %60, ptr %0, align 4, !tbaa !5
  br label %lean_dec.exit

61:                                               ; preds = %56
  %.not.i6 = icmp eq i32 %57, 0
  br i1 %.not.i6, label %lean_dec.exit, label %62

62:                                               ; preds = %61
  tail call void @lean_dec_ref_cold(ptr noundef nonnull %0) #3
  br label %lean_dec.exit

lean_dec.exit:                                    ; preds = %62, %61, %59, %lean_dec.exit5
  %63 = inttoptr i64 %.0.i.i to ptr
  ret ptr %63
}